target datalayout = "e-m:e-p270:32:32-p271:32:32-p272:64:64-i64:64-i128:128-f80:128-n8:16:32:64-S128"
target triple = "x86_64-pc-linux-gnu"

%"class.zmq::msg_t" = type { %union.anon }
%union.anon = type { %struct.anon }
%struct.anon = type { ptr, [34 x i8], i8, i8, i32, %"union.zmq::msg_t::group_t" }
%"union.zmq::msg_t::group_t" = type { %struct.anon.1 }
%struct.anon.1 = type { i8, ptr }
%"class.zmq::pipe_t" = type { %"class.zmq::object_t.base", [4 x i8], %"class.zmq::array_item_t.base", [4 x i8], %"class.zmq::array_item_t.base.11", [4 x i8], %"class.zmq::array_item_t.base.13", ptr, ptr, i8, i8, i32, i32, i32, i32, i64, i64, i64, ptr, ptr, i32, i8, [3 x i8], %"struct.zmq::blob_t", i32, i8, [3 x i8], %"struct.zmq::endpoint_uri_pair_t", %"class.zmq::msg_t" }
%"class.zmq::object_t.base" = type <{ ptr, ptr, i32 }>
%"class.zmq::array_item_t.base" = type <{ ptr, i32 }>
%"class.zmq::array_item_t.base.11" = type <{ ptr, i32 }>
%"class.zmq::array_item_t.base.13" = type <{ ptr, i32 }>
%"struct.zmq::blob_t" = type <{ ptr, i64, i8, [7 x i8] }>
%"struct.zmq::endpoint_uri_pair_t" = type <{ %"class.std::__cxx11::basic_string", %"class.std::__cxx11::basic_string", i32, [4 x i8] }>
%"class.std::__cxx11::basic_string" = type { %"struct.std::__cxx11::basic_string<char>::_Alloc_hider", i64, %union.anon.14 }
%"struct.std::__cxx11::basic_string<char>::_Alloc_hider" = type { ptr }
%union.anon.14 = type { i64, [8 x i8] }

; Function Attrs: mustprogress uwtable
define void @_ZN3zmq6pipe_t23process_pipe_peer_statsEmPNS_5own_tEPNS_19endpoint_uri_pair_tE(ptr noundef nonnull align 8 dereferenceable(328) %0, i64 noundef %1, ptr noundef %2, ptr noundef %3) unnamed_addr #0 align 2 {
  %5 = alloca ptr, align 8
  %6 = alloca i64, align 8
  %7 = alloca ptr, align 8
  %8 = alloca ptr, align 8
  store ptr %0, ptr %5, align 8, !tbaa !27
  store i64 %1, ptr %6, align 8, !tbaa !113
  store ptr %2, ptr %7, align 8, !tbaa !153
  store ptr %3, ptr %8, align 8, !tbaa !143
  %9 = load ptr, ptr %5, align 8
  %10 = load ptr, ptr %7, align 8, !tbaa !153
  %11 = load i64, ptr %6, align 8, !tbaa !113
  %12 = getelementptr inbounds nuw %"class.zmq::pipe_t", ptr %9, i32 0, i32 16
  %13 = load i64, ptr %12, align 8, !tbaa !109
  %14 = getelementptr inbounds nuw %"class.zmq::pipe_t", ptr %9, i32 0, i32 17
  %15 = load i64, ptr %14, align 8, !tbaa !124
  %16 = sub i64 %13, %15
  %17 = load ptr, ptr %8, align 8, !tbaa !143
  call void @_ZN3zmq8object_t23send_pipe_stats_publishEPNS_5own_tEmmPNS_19endpoint_uri_pair_tE(ptr noundef nonnull align 8 dereferenceable(20) %9, ptr noundef %10, i64 noundef %11, i64 noundef %16, ptr noundef %17)
  ret void
}