; Function Attrs: mustprogress uwtable
define void @_ZN3zmq6pipe_t23process_pipe_peer_statsEmPNS_5own_tEPNS_19endpoint_uri_pair_tE(ptr noundef nonnull align 8 dereferenceable(328) %0, i64 noundef %1, ptr noundef %2, ptr noundef %3) unnamed_addr #0 align 2 {
  %5 = getelementptr inbounds nuw i8, ptr %0, i64 120
  %6 = load i64, ptr %5, align 8, !tbaa !104
  %7 = getelementptr inbounds nuw i8, ptr %0, i64 128
  %8 = load i64, ptr %7, align 8, !tbaa !132
  %9 = sub i64 %6, %8
  tail call void @_ZN3zmq8object_t23send_pipe_stats_publishEPNS_5own_tEmmPNS_19endpoint_uri_pair_tE(ptr noundef nonnull align 8 dereferenceable(20) %0, ptr noundef %2, i64 noundef %1, i64 noundef %9, ptr noundef %3)
  ret void
}